target datalayout = "e-m:e-p270:32:32-p271:32:32-p272:64:64-i64:64-i128:128-f80:128-n8:16:32:64-S128"
target triple = "x86_64-pc-linux-gnu"

%struct._zend_executor_globals = type { %struct._zval_struct, %struct._zval_struct, [32 x ptr], ptr, ptr, %struct._zend_array, %struct._zend_array, ptr, i32, i8, %struct._zval_struct, i32, ptr, ptr, ptr, ptr, ptr, ptr, i64, ptr, ptr, i32, ptr, i32, i64, i32, i32, i32, i8, i8, %struct.zend_atomic_bool_s, %struct.zend_atomic_bool_s, ptr, i64, ptr, ptr, %struct._zend_array, %struct._zend_array, i32, i8, %struct._zval_struct, %struct._zval_struct, %struct._zend_stack, %struct._zend_stack, %struct._zend_stack, ptr, i32, i32, i64, ptr, ptr, ptr, %struct._zend_objects_store, %struct._zend_lazy_objects_store, ptr, ptr, ptr, [3 x %struct._zend_op], ptr, i8, i8, i64, i32, i32, ptr, [16 x %struct._HashTableIterator], ptr, %union._zend_function, %struct._zend_op, %struct._zend_array, i64, %struct.zend_get_gc_buffer, ptr, ptr, ptr, i64, i8, i32, ptr, ptr, i64, %struct._zend_call_stack, i64, i64, %struct._zend_strtod_state, [6 x ptr] }
%struct.zend_atomic_bool_s = type { i8 }
%struct._zval_struct = type { %union._zend_value, %union.anon, %union.anon.2 }
%union._zend_value = type { i64 }
%union.anon = type { i32 }
%union.anon.2 = type { i32 }
%struct._zend_stack = type { i32, i32, i32, ptr }
%struct._zend_objects_store = type { ptr, i32, i32, i32 }
%struct._zend_lazy_objects_store = type { %struct._zend_array }
%struct._HashTableIterator = type { ptr, i32, i32 }
%union._zend_function = type { %struct._zend_op_array }
%struct._zend_op_array = type { i8, [3 x i8], i32, ptr, ptr, ptr, i32, i32, ptr, ptr, ptr, ptr, i32, ptr, i32, i32, i32, ptr, ptr, ptr, ptr, ptr, i32, i32, ptr, ptr, ptr, i32, i32, i32, i32, ptr, ptr, [6 x ptr] }
%struct._zend_op = type { ptr, %union._znode_op, %union._znode_op, %union._znode_op, i32, i32, i8, i8, i8, i8 }
%union._znode_op = type { i32 }
%struct._zend_array = type { %struct._zend_refcounted_h, %union.anon.4, i32, %union.anon.6, i32, i32, i32, i32, i64, ptr }
%struct._zend_refcounted_h = type { i32, %union.anon.3 }
%union.anon.3 = type { i32 }
%union.anon.4 = type { i32 }
%union.anon.6 = type { ptr }
%struct.zend_get_gc_buffer = type { ptr, ptr, ptr }
%struct._zend_call_stack = type { ptr, i64 }
%struct._zend_strtod_state = type { [8 x ptr], ptr, ptr }
%struct._zend_strtod_bigint = type { ptr, i32, i32, i32, i32, [1 x i32] }

@executor_globals = external global %struct._zend_executor_globals, align 8

; Function Attrs: nounwind uwtable
define internal void @Bfree(ptr noundef %0) #0 {
  %2 = alloca ptr, align 8
  store ptr %0, ptr %2, align 8, !tbaa !11
  %3 = load ptr, ptr %2, align 8, !tbaa !11
  %4 = icmp ne ptr %3, null
  br i1 %4, label %5, label %28

5:                                                ; preds = %1
  %6 = load ptr, ptr %2, align 8, !tbaa !11
  %7 = getelementptr inbounds nuw %struct._zend_strtod_bigint, ptr %6, i32 0, i32 1
  %8 = load i32, ptr %7, align 8, !tbaa !63
  %9 = icmp sgt i32 %8, 7
  br i1 %9, label %10, label %12

10:                                               ; preds = %5
  %11 = load ptr, ptr %2, align 8, !tbaa !11
  call void @free(ptr noundef %11) #7
  br label %27

12:                                               ; preds = %5
  %13 = load ptr, ptr %2, align 8, !tbaa !11
  %14 = getelementptr inbounds nuw %struct._zend_strtod_bigint, ptr %13, i32 0, i32 1
  %15 = load i32, ptr %14, align 8, !tbaa !63
  %16 = sext i32 %15 to i64
  %17 = getelementptr inbounds [8 x ptr], ptr getelementptr inbounds nuw (%struct._zend_executor_globals, ptr @executor_globals, i32 0, i32 84), i64 0, i64 %16
  %18 = load ptr, ptr %17, align 8, !tbaa !11
  %19 = load ptr, ptr %2, align 8, !tbaa !11
  %20 = getelementptr inbounds nuw %struct._zend_strtod_bigint, ptr %19, i32 0, i32 0
  store ptr %18, ptr %20, align 8, !tbaa !13
  %21 = load ptr, ptr %2, align 8, !tbaa !11
  %22 = load ptr, ptr %2, align 8, !tbaa !11
  %23 = getelementptr inbounds nuw %struct._zend_strtod_bigint, ptr %22, i32 0, i32 1
  %24 = load i32, ptr %23, align 8, !tbaa !63
  %25 = sext i32 %24 to i64
  %26 = getelementptr inbounds [8 x ptr], ptr getelementptr inbounds nuw (%struct._zend_executor_globals, ptr @executor_globals, i32 0, i32 84), i64 0, i64 %25
  store ptr %21, ptr %26, align 8, !tbaa !11
  br label %27

27:                                               ; preds = %12, %10
  br label %28

28:                                               ; preds = %27, %1
  ret void
}

; Function Attrs: nounwind uwtable
define dso_local void @zend_freedtoa(ptr noundef %0) #0 {
  %2 = alloca ptr, align 8
  %3 = alloca ptr, align 8
  store ptr %0, ptr %2, align 8, !tbaa !48
  call void @llvm.lifetime.start.p0(i64 8, ptr %3) #7
  %4 = load ptr, ptr %2, align 8, !tbaa !48
  %5 = getelementptr inbounds i32, ptr %4, i64 -1
  store ptr %5, ptr %3, align 8, !tbaa !11
  %6 = load ptr, ptr %3, align 8, !tbaa !11
  %7 = load i32, ptr %6, align 4, !tbaa !4
  %8 = load ptr, ptr %3, align 8, !tbaa !11
  %9 = getelementptr inbounds nuw %struct._zend_strtod_bigint, ptr %8, i32 0, i32 1
  store i32 %7, ptr %9, align 8, !tbaa !63
  %10 = shl i32 1, %7
  %11 = load ptr, ptr %3, align 8, !tbaa !11
  %12 = getelementptr inbounds nuw %struct._zend_strtod_bigint, ptr %11, i32 0, i32 2
  store i32 %10, ptr %12, align 4, !tbaa !67
  %13 = load ptr, ptr %3, align 8, !tbaa !11
  call void @Bfree(ptr noundef %13)
  %14 = load ptr, ptr %2, align 8, !tbaa !48
  %15 = load ptr, ptr getelementptr inbounds nuw (%struct._zend_strtod_state, ptr getelementptr inbounds nuw (%struct._zend_executor_globals, ptr @executor_globals, i32 0, i32 84), i32 0, i32 2), align 8, !tbaa !75
  %16 = icmp eq ptr %14, %15
  br i1 %16, label %17, label %18

17:                                               ; preds = %1
  store ptr null, ptr getelementptr inbounds nuw (%struct._zend_strtod_state, ptr getelementptr inbounds nuw (%struct._zend_executor_globals, ptr @executor_globals, i32 0, i32 84), i32 0, i32 2), align 8, !tbaa !75
  br label %18

18:                                               ; preds = %17, %1
  call void @llvm.lifetime.end.p0(i64 8, ptr %3) #7
  ret void
}