; Function Attrs: mustprogress nounwind willreturn uwtable
define dso_local void @zend_freedtoa(ptr noundef initializes((4, 12)) %0) local_unnamed_addr #4 {
  %2 = getelementptr inbounds i8, ptr %0, i64 -4
  %3 = load i32, ptr %2, align 4, !tbaa !51
  %4 = getelementptr inbounds nuw i8, ptr %0, i64 4
  store i32 %3, ptr %4, align 8, !tbaa !48
  %5 = shl nuw i32 1, %3
  %6 = getelementptr inbounds nuw i8, ptr %0, i64 8
  store i32 %5, ptr %6, align 4, !tbaa !49
  %7 = icmp sgt i32 %3, 7
  br i1 %7, label %8, label %9

8:                                                ; preds = %1
  tail call void @free(ptr noundef nonnull %2) #13
  br label %Bfree.exit

9:                                                ; preds = %1
  %10 = sext i32 %3 to i64
  %11 = getelementptr inbounds [8 x ptr], ptr getelementptr inbounds nuw (i8, ptr @executor_globals, i64 1856), i64 0, i64 %10
  %12 = load ptr, ptr %11, align 8, !tbaa !4
  store ptr %12, ptr %2, align 8, !tbaa !9
  store ptr %2, ptr %11, align 8, !tbaa !4
  br label %Bfree.exit

Bfree.exit:                                       ; preds = %8, %9
  %13 = load ptr, ptr getelementptr inbounds nuw (i8, ptr @executor_globals, i64 1928), align 8, !tbaa !54
  %14 = icmp eq ptr %0, %13
  br i1 %14, label %15, label %16

15:                                               ; preds = %Bfree.exit
  store ptr null, ptr getelementptr inbounds nuw (i8, ptr @executor_globals, i64 1928), align 8, !tbaa !54
  br label %16

16:                                               ; preds = %15, %Bfree.exit
  ret void
}